; Function Attrs: nounwind uwtable
define void @_ZTv0_n24_N5arrow2io16HdfsOutputStreamD0Ev(ptr noundef %this) unnamed_addr #7 align 2 {
entry:
  %0 = load ptr, ptr %this, align 8
  %1 = getelementptr inbounds i8, ptr %0, i64 -24
  %2 = load i64, ptr %1, align 8
  %3 = getelementptr inbounds i8, ptr %this, i64 %2
  tail call void @_ZN5arrow2io16HdfsOutputStreamD2Ev(ptr noundef nonnull align 8 dereferenceable(16) %3, ptr noundef nonnull @_ZTTN5arrow2io16HdfsOutputStreamE) #21
  %4 = getelementptr inbounds i8, ptr %3, i64 16
  tail call void @_ZN5arrow2io13FileInterfaceD2Ev(ptr noundef nonnull align 8 dereferenceable(28) %4) #21
  tail call void @_ZdlPv(ptr noundef nonnull %3) #22
  ret void
}